; Function Attrs: mustprogress uwtable
define void @FreeIpoptProblem(ptr noundef %0) local_unnamed_addr #3 personality ptr @__gxx_personality_v0 {
  %2 = load ptr, ptr %0, align 8, !tbaa !22
  %.not.i.i.i = icmp eq ptr %2, null
  br i1 %.not.i.i.i, label %_ZN5Ipopt8SmartPtrINS_16IpoptApplicationEEaSEPS1_.exit, label %3

3:                                                ; preds = %1
  %4 = getelementptr inbounds nuw i8, ptr %2, i64 8
  %5 = load i32, ptr %4, align 8, !tbaa !20
  %6 = add nsw i32 %5, -1
  store i32 %6, ptr %4, align 8, !tbaa !20
  %7 = icmp eq i32 %6, 0
  br i1 %7, label %8, label %_ZN5Ipopt8SmartPtrINS_16IpoptApplicationEEaSEPS1_.exit

8:                                                ; preds = %3
  %9 = load ptr, ptr %2, align 8, !tbaa !54
  %10 = getelementptr inbounds nuw i8, ptr %9, i64 8
  %11 = load ptr, ptr %10, align 8
  tail call void %11(ptr noundef nonnull align 8 dereferenceable(90) %2) #19
  br label %_ZN5Ipopt8SmartPtrINS_16IpoptApplicationEEaSEPS1_.exit

_ZN5Ipopt8SmartPtrINS_16IpoptApplicationEEaSEPS1_.exit: ; preds = %1, %3, %8
  store ptr null, ptr %0, align 8, !tbaa !22
  %12 = getelementptr inbounds nuw i8, ptr %0, i64 24
  %13 = load ptr, ptr %12, align 8, !tbaa !15
  %14 = icmp eq ptr %13, null
  br i1 %14, label %16, label %15

15:                                               ; preds = %_ZN5Ipopt8SmartPtrINS_16IpoptApplicationEEaSEPS1_.exit
  tail call void @_ZdaPv(ptr noundef nonnull %13) #18
  br label %16

16:                                               ; preds = %15, %_ZN5Ipopt8SmartPtrINS_16IpoptApplicationEEaSEPS1_.exit
  %17 = getelementptr inbounds nuw i8, ptr %0, i64 32
  %18 = load ptr, ptr %17, align 8, !tbaa !16
  %19 = icmp eq ptr %18, null
  br i1 %19, label %21, label %20

20:                                               ; preds = %16
  tail call void @_ZdaPv(ptr noundef nonnull %18) #18
  br label %21

21:                                               ; preds = %20, %16
  %22 = getelementptr inbounds nuw i8, ptr %0, i64 48
  %23 = load ptr, ptr %22, align 8, !tbaa !18
  %24 = icmp eq ptr %23, null
  br i1 %24, label %26, label %25

25:                                               ; preds = %21
  tail call void @_ZdaPv(ptr noundef nonnull %23) #18
  br label %26

26:                                               ; preds = %25, %21
  %27 = getelementptr inbounds nuw i8, ptr %0, i64 56
  %28 = load ptr, ptr %27, align 8, !tbaa !19
  %29 = icmp eq ptr %28, null
  br i1 %29, label %31, label %30

30:                                               ; preds = %26
  tail call void @_ZdaPv(ptr noundef nonnull %28) #18
  br label %31

31:                                               ; preds = %30, %26
  %32 = getelementptr inbounds nuw i8, ptr %0, i64 136
  %33 = load ptr, ptr %32, align 8, !tbaa !56
  %34 = icmp eq ptr %33, null
  br i1 %34, label %36, label %35

35:                                               ; preds = %31
  tail call void @_ZdaPv(ptr noundef nonnull %33) #18
  br label %36

36:                                               ; preds = %35, %31
  %37 = getelementptr inbounds nuw i8, ptr %0, i64 144
  %38 = load ptr, ptr %37, align 8, !tbaa !57
  %39 = icmp eq ptr %38, null
  br i1 %39, label %41, label %40

40:                                               ; preds = %36
  tail call void @_ZdaPv(ptr noundef nonnull %38) #18
  br label %41

41:                                               ; preds = %36, %40
  %42 = getelementptr inbounds nuw i8, ptr %0, i64 8
  %43 = load ptr, ptr %42, align 8, !tbaa !58
  %.not.i.i.i13 = icmp eq ptr %43, null
  br i1 %.not.i.i.i13, label %_ZN5Ipopt8SmartPtrINS_16StdInterfaceTNLPEED2Ev.exit.i, label %44

44:                                               ; preds = %41
  %45 = getelementptr inbounds nuw i8, ptr %43, i64 8
  %46 = load i32, ptr %45, align 8, !tbaa !20
  %47 = add nsw i32 %46, -1
  store i32 %47, ptr %45, align 8, !tbaa !20
  %48 = icmp eq i32 %47, 0
  br i1 %48, label %49, label %_ZN5Ipopt8SmartPtrINS_16StdInterfaceTNLPEED2Ev.exit.i

49:                                               ; preds = %44
  %50 = load ptr, ptr %43, align 8, !tbaa !54
  %51 = getelementptr inbounds nuw i8, ptr %50, i64 8
  %52 = load ptr, ptr %51, align 8
  tail call void %52(ptr noundef nonnull align 8 dereferenceable(264) %43) #19
  store ptr null, ptr %42, align 8, !tbaa !58
  br label %_ZN5Ipopt8SmartPtrINS_16StdInterfaceTNLPEED2Ev.exit.i

_ZN5Ipopt8SmartPtrINS_16StdInterfaceTNLPEED2Ev.exit.i: ; preds = %49, %44, %41
  %53 = load ptr, ptr %0, align 8, !tbaa !22
  %.not.i.i1.i = icmp eq ptr %53, null
  br i1 %.not.i.i1.i, label %_ZN16IpoptProblemInfoD2Ev.exit, label %54

54:                                               ; preds = %_ZN5Ipopt8SmartPtrINS_16StdInterfaceTNLPEED2Ev.exit.i
  %55 = getelementptr inbounds nuw i8, ptr %53, i64 8
  %56 = load i32, ptr %55, align 8, !tbaa !20
  %57 = add nsw i32 %56, -1
  store i32 %57, ptr %55, align 8, !tbaa !20
  %58 = icmp eq i32 %57, 0
  br i1 %58, label %59, label %_ZN16IpoptProblemInfoD2Ev.exit

59:                                               ; preds = %54
  %60 = load ptr, ptr %53, align 8, !tbaa !54
  %61 = getelementptr inbounds nuw i8, ptr %60, i64 8
  %62 = load ptr, ptr %61, align 8
  tail call void %62(ptr noundef nonnull align 8 dereferenceable(90) %53) #19
  br label %_ZN16IpoptProblemInfoD2Ev.exit

_ZN16IpoptProblemInfoD2Ev.exit:                   ; preds = %_ZN5Ipopt8SmartPtrINS_16StdInterfaceTNLPEED2Ev.exit.i, %54, %59
  tail call void @_ZdlPvm(ptr noundef nonnull %0, i64 noundef 152) #18
  ret void
}